; Function Attrs: nounwind uwtable
define internal i32 @gen_traverse(ptr noundef %0, ptr noundef %1, ptr noundef %2) #2 {
  %4 = getelementptr inbounds nuw i8, ptr %0, i64 24
  %5 = load ptr, ptr %4, align 8, !tbaa !117
  %.not = icmp eq ptr %5, null
  br i1 %.not, label %8, label %6

6:                                                ; preds = %3
  %7 = tail call i32 %1(ptr noundef nonnull %5, ptr noundef %2) #8
  %.not52 = icmp eq i32 %7, 0
  br i1 %.not52, label %8, label %30

8:                                                ; preds = %3, %6
  %9 = getelementptr inbounds nuw i8, ptr %0, i64 32
  %10 = load ptr, ptr %9, align 8, !tbaa !116
  %.not53 = icmp eq ptr %10, null
  br i1 %.not53, label %13, label %11

11:                                               ; preds = %8
  %12 = tail call i32 %1(ptr noundef nonnull %10, ptr noundef %2) #8
  %.not54 = icmp eq i32 %12, 0
  br i1 %.not54, label %13, label %30

13:                                               ; preds = %11, %8
  %14 = getelementptr inbounds nuw i8, ptr %0, i64 67
  %15 = load i8, ptr %14, align 1, !tbaa !7
  %.not55 = icmp eq i8 %15, 4
  %16 = getelementptr inbounds nuw i8, ptr %0, i64 72
  br i1 %.not55, label %19, label %17

17:                                               ; preds = %13
  %18 = tail call i32 @_PyFrame_Traverse(ptr noundef nonnull %16, ptr noundef %1, ptr noundef %2) #8
  %.not57 = icmp eq i32 %18, 0
  br i1 %.not57, label %24, label %30

19:                                               ; preds = %13
  %20 = load i64, ptr %16, align 8, !tbaa !4
  %21 = icmp eq i64 %20, 0
  br i1 %21, label %24, label %22

22:                                               ; preds = %19
  %23 = tail call i32 @_PyGC_VisitStackRef(ptr noundef nonnull %16, ptr noundef %1, ptr noundef %2) #8
  %.not56 = icmp eq i32 %23, 0
  br i1 %.not56, label %24, label %30

24:                                               ; preds = %17, %22, %19
  %25 = getelementptr inbounds nuw i8, ptr %0, i64 40
  %26 = load ptr, ptr %25, align 8, !tbaa !118
  %.not58 = icmp eq ptr %26, null
  br i1 %.not58, label %29, label %27

27:                                               ; preds = %24
  %28 = tail call i32 %1(ptr noundef nonnull %26, ptr noundef %2) #8
  %.not59 = icmp eq i32 %28, 0
  br i1 %.not59, label %29, label %30

29:                                               ; preds = %27, %24
  br label %30

30:                                               ; preds = %6, %11, %17, %27, %22, %29
  %.1 = phi i32 [ 0, %29 ], [ %28, %27 ], [ %18, %17 ], [ %23, %22 ], [ %12, %11 ], [ %7, %6 ]
  ret i32 %.1
}